target datalayout = "e-m:e-p270:32:32-p271:32:32-p272:64:64-i64:64-i128:128-f80:128-n8:16:32:64-S128"
target triple = "x86_64-pc-linux-gnu"

%struct.ItemPointerData = type { %struct.BlockIdData, i16 }
%struct.BlockIdData = type { i16, i16 }
%struct.HeapTupleHeaderData = type { %union.anon.1, %struct.ItemPointerData, i16, i16, i8, [0 x i8] }
%union.anon.1 = type { %struct.HeapTupleFields }
%struct.HeapTupleFields = type { i32, i32, %union.anon.2 }
%union.anon.2 = type { i32 }
%struct.HeapTupleFreeze = type { i32, i16, i16, i8, i8, i16 }
%struct.VacuumCutoffs = type { i32, i32, i32, i32, i32, i32 }
%struct.HeapPageFreeze = type { i8, i32, i32, i32, i32 }

; Function Attrs: inlinehint nounwind uwtable
define internal void @HeapTupleHeaderSetXvac(ptr noundef %0, i32 noundef %1) #3 {
  %3 = alloca ptr, align 8
  %4 = alloca i32, align 4
  store ptr %0, ptr %3, align 8
  store i32 %1, ptr %4, align 4
  %5 = load i32, ptr %4, align 4
  %6 = load ptr, ptr %3, align 8
  %7 = getelementptr inbounds nuw %struct.HeapTupleHeaderData, ptr %6, i32 0, i32 0
  %8 = getelementptr inbounds nuw %struct.HeapTupleFields, ptr %7, i32 0, i32 2
  store i32 %5, ptr %8, align 4
  ret void
}

; Function Attrs: inlinehint nounwind uwtable
define internal void @HeapTupleHeaderSetXmax(ptr noundef %0, i32 noundef %1) #3 {
  %3 = alloca ptr, align 8
  %4 = alloca i32, align 4
  store ptr %0, ptr %3, align 8
  store i32 %1, ptr %4, align 4
  %5 = load i32, ptr %4, align 4
  %6 = load ptr, ptr %3, align 8
  %7 = getelementptr inbounds nuw %struct.HeapTupleHeaderData, ptr %6, i32 0, i32 0
  %8 = getelementptr inbounds nuw %struct.HeapTupleFields, ptr %7, i32 0, i32 1
  store i32 %5, ptr %8, align 4
  ret void
}

; Function Attrs: inlinehint nounwind uwtable
define internal void @heap_execute_freeze_tuple(ptr noundef %0, ptr noundef %1) #3 {
  %3 = alloca ptr, align 8
  %4 = alloca ptr, align 8
  store ptr %0, ptr %3, align 8
  store ptr %1, ptr %4, align 8
  %5 = load ptr, ptr %3, align 8
  %6 = load ptr, ptr %4, align 8
  %7 = getelementptr inbounds nuw %struct.HeapTupleFreeze, ptr %6, i32 0, i32 0
  %8 = load i32, ptr %7, align 4
  call void @HeapTupleHeaderSetXmax(ptr noundef %5, i32 noundef %8)
  %9 = load ptr, ptr %4, align 8
  %10 = getelementptr inbounds nuw %struct.HeapTupleFreeze, ptr %9, i32 0, i32 3
  %11 = load i8, ptr %10, align 4
  %12 = zext i8 %11 to i32
  %13 = and i32 %12, 2
  %14 = icmp ne i32 %13, 0
  br i1 %14, label %15, label %17

15:                                               ; preds = %2
  %16 = load ptr, ptr %3, align 8
  call void @HeapTupleHeaderSetXvac(ptr noundef %16, i32 noundef 2)
  br label %17

17:                                               ; preds = %15, %2
  %18 = load ptr, ptr %4, align 8
  %19 = getelementptr inbounds nuw %struct.HeapTupleFreeze, ptr %18, i32 0, i32 3
  %20 = load i8, ptr %19, align 4
  %21 = zext i8 %20 to i32
  %22 = and i32 %21, 4
  %23 = icmp ne i32 %22, 0
  br i1 %23, label %24, label %26

24:                                               ; preds = %17
  %25 = load ptr, ptr %3, align 8
  call void @HeapTupleHeaderSetXvac(ptr noundef %25, i32 noundef 0)
  br label %26

26:                                               ; preds = %24, %17
  %27 = load ptr, ptr %4, align 8
  %28 = getelementptr inbounds nuw %struct.HeapTupleFreeze, ptr %27, i32 0, i32 2
  %29 = load i16, ptr %28, align 2
  %30 = load ptr, ptr %3, align 8
  %31 = getelementptr inbounds nuw %struct.HeapTupleHeaderData, ptr %30, i32 0, i32 3
  store i16 %29, ptr %31, align 4
  %32 = load ptr, ptr %4, align 8
  %33 = getelementptr inbounds nuw %struct.HeapTupleFreeze, ptr %32, i32 0, i32 1
  %34 = load i16, ptr %33, align 4
  %35 = load ptr, ptr %3, align 8
  %36 = getelementptr inbounds nuw %struct.HeapTupleHeaderData, ptr %35, i32 0, i32 2
  store i16 %34, ptr %36, align 2
  ret void
}

; Function Attrs: nounwind uwtable
define dso_local zeroext i1 @heap_freeze_tuple(ptr noundef %0, i32 noundef %1, i32 noundef %2, i32 noundef %3, i32 noundef %4) #0 {
  %6 = alloca ptr, align 8
  %7 = alloca i32, align 4
  %8 = alloca i32, align 4
  %9 = alloca i32, align 4
  %10 = alloca i32, align 4
  %11 = alloca %struct.HeapTupleFreeze, align 4
  %12 = alloca i8, align 1
  %13 = alloca i8, align 1
  %14 = alloca %struct.VacuumCutoffs, align 4
  %15 = alloca %struct.HeapPageFreeze, align 4
  store ptr %0, ptr %6, align 8
  store i32 %1, ptr %7, align 4
  store i32 %2, ptr %8, align 4
  store i32 %3, ptr %9, align 4
  store i32 %4, ptr %10, align 4
  call void @llvm.lifetime.start.p0(i64 12, ptr %11) #10
  call void @llvm.lifetime.start.p0(i64 1, ptr %12) #10
  call void @llvm.lifetime.start.p0(i64 1, ptr %13) #10
  call void @llvm.lifetime.start.p0(i64 24, ptr %14) #10
  call void @llvm.lifetime.start.p0(i64 20, ptr %15) #10
  %16 = load i32, ptr %7, align 4
  %17 = getelementptr inbounds nuw %struct.VacuumCutoffs, ptr %14, i32 0, i32 0
  store i32 %16, ptr %17, align 4
  %18 = load i32, ptr %8, align 4
  %19 = getelementptr inbounds nuw %struct.VacuumCutoffs, ptr %14, i32 0, i32 1
  store i32 %18, ptr %19, align 4
  %20 = load i32, ptr %9, align 4
  %21 = getelementptr inbounds nuw %struct.VacuumCutoffs, ptr %14, i32 0, i32 2
  store i32 %20, ptr %21, align 4
  %22 = load i32, ptr %10, align 4
  %23 = getelementptr inbounds nuw %struct.VacuumCutoffs, ptr %14, i32 0, i32 3
  store i32 %22, ptr %23, align 4
  %24 = load i32, ptr %9, align 4
  %25 = getelementptr inbounds nuw %struct.VacuumCutoffs, ptr %14, i32 0, i32 4
  store i32 %24, ptr %25, align 4
  %26 = load i32, ptr %10, align 4
  %27 = getelementptr inbounds nuw %struct.VacuumCutoffs, ptr %14, i32 0, i32 5
  store i32 %26, ptr %27, align 4
  %28 = getelementptr inbounds nuw %struct.HeapPageFreeze, ptr %15, i32 0, i32 0
  store i8 1, ptr %28, align 4
  %29 = load i32, ptr %9, align 4
  %30 = getelementptr inbounds nuw %struct.HeapPageFreeze, ptr %15, i32 0, i32 1
  store i32 %29, ptr %30, align 4
  %31 = load i32, ptr %10, align 4
  %32 = getelementptr inbounds nuw %struct.HeapPageFreeze, ptr %15, i32 0, i32 2
  store i32 %31, ptr %32, align 4
  %33 = load i32, ptr %9, align 4
  %34 = getelementptr inbounds nuw %struct.HeapPageFreeze, ptr %15, i32 0, i32 3
  store i32 %33, ptr %34, align 4
  %35 = load i32, ptr %10, align 4
  %36 = getelementptr inbounds nuw %struct.HeapPageFreeze, ptr %15, i32 0, i32 4
  store i32 %35, ptr %36, align 4
  %37 = load ptr, ptr %6, align 8
  %38 = call zeroext i1 @heap_prepare_freeze_tuple(ptr noundef %37, ptr noundef %14, ptr noundef %15, ptr noundef %11, ptr noundef %13)
  %39 = zext i1 %38 to i8
  store i8 %39, ptr %12, align 1
  %40 = load i8, ptr %12, align 1, !range !4, !noundef !5
  %41 = trunc i8 %40 to i1
  br i1 %41, label %42, label %44

42:                                               ; preds = %5
  %43 = load ptr, ptr %6, align 8
  call void @heap_execute_freeze_tuple(ptr noundef %43, ptr noundef %11)
  br label %44

44:                                               ; preds = %42, %5
  %45 = load i8, ptr %12, align 1, !range !4, !noundef !5
  %46 = trunc i8 %45 to i1
  call void @llvm.lifetime.end.p0(i64 20, ptr %15) #10
  call void @llvm.lifetime.end.p0(i64 24, ptr %14) #10
  call void @llvm.lifetime.end.p0(i64 1, ptr %13) #10
  call void @llvm.lifetime.end.p0(i64 1, ptr %12) #10
  call void @llvm.lifetime.end.p0(i64 12, ptr %11) #10
  ret i1 %46
}