; Function Attrs: nounwind uwtable
define dso_local noundef zeroext i1 @heap_freeze_tuple(ptr noundef captures(none) %0, i32 noundef %1, i32 noundef %2, i32 noundef %3, i32 noundef %4) local_unnamed_addr #2 {
  %6 = alloca %struct.HeapTupleFreeze, align 4
  %7 = alloca i8, align 1
  %8 = alloca %struct.VacuumCutoffs, align 4
  %9 = alloca %struct.HeapPageFreeze, align 4
  call void @llvm.lifetime.start.p0(i64 12, ptr nonnull %6) #13
  call void @llvm.lifetime.start.p0(i64 1, ptr nonnull %7) #13
  call void @llvm.lifetime.start.p0(i64 24, ptr nonnull %8) #13
  call void @llvm.lifetime.start.p0(i64 20, ptr nonnull %9) #13
  store i32 %1, ptr %8, align 4
  %10 = getelementptr inbounds nuw i8, ptr %8, i64 4
  store i32 %2, ptr %10, align 4
  %11 = getelementptr inbounds nuw i8, ptr %8, i64 8
  store i32 %3, ptr %11, align 4
  %12 = getelementptr inbounds nuw i8, ptr %8, i64 12
  store i32 %4, ptr %12, align 4
  %13 = getelementptr inbounds nuw i8, ptr %8, i64 16
  store i32 %3, ptr %13, align 4
  %14 = getelementptr inbounds nuw i8, ptr %8, i64 20
  store i32 %4, ptr %14, align 4
  store i8 1, ptr %9, align 4
  %15 = getelementptr inbounds nuw i8, ptr %9, i64 4
  store i32 %3, ptr %15, align 4
  %16 = getelementptr inbounds nuw i8, ptr %9, i64 8
  store i32 %4, ptr %16, align 4
  %17 = getelementptr inbounds nuw i8, ptr %9, i64 12
  store i32 %3, ptr %17, align 4
  %18 = getelementptr inbounds nuw i8, ptr %9, i64 16
  store i32 %4, ptr %18, align 4
  %19 = call zeroext i1 @heap_prepare_freeze_tuple(ptr noundef %0, ptr noundef nonnull %8, ptr noundef nonnull %9, ptr noundef nonnull %6, ptr noundef nonnull %7)
  br i1 %19, label %20, label %38

20:                                               ; preds = %5
  %21 = load i32, ptr %6, align 4
  %22 = getelementptr inbounds nuw i8, ptr %0, i64 4
  store i32 %21, ptr %22, align 4
  %23 = getelementptr inbounds nuw i8, ptr %6, i64 8
  %24 = load i8, ptr %23, align 4
  %25 = and i8 %24, 2
  %.not.i = icmp eq i8 %25, 0
  br i1 %.not.i, label %28, label %26

26:                                               ; preds = %20
  %27 = getelementptr inbounds nuw i8, ptr %0, i64 8
  store i32 2, ptr %27, align 4
  br label %28

28:                                               ; preds = %26, %20
  %29 = and i8 %24, 4
  %.not10.i = icmp eq i8 %29, 0
  br i1 %.not10.i, label %heap_execute_freeze_tuple.exit, label %30

30:                                               ; preds = %28
  %31 = getelementptr inbounds nuw i8, ptr %0, i64 8
  store i32 0, ptr %31, align 4
  br label %heap_execute_freeze_tuple.exit

heap_execute_freeze_tuple.exit:                   ; preds = %28, %30
  %32 = getelementptr inbounds nuw i8, ptr %6, i64 6
  %33 = load i16, ptr %32, align 2
  %34 = getelementptr inbounds nuw i8, ptr %0, i64 20
  store i16 %33, ptr %34, align 4
  %35 = getelementptr inbounds nuw i8, ptr %6, i64 4
  %36 = load i16, ptr %35, align 4
  %37 = getelementptr inbounds nuw i8, ptr %0, i64 18
  store i16 %36, ptr %37, align 2
  br label %38

38:                                               ; preds = %heap_execute_freeze_tuple.exit, %5
  call void @llvm.lifetime.end.p0(i64 20, ptr nonnull %9) #13
  call void @llvm.lifetime.end.p0(i64 24, ptr nonnull %8) #13
  call void @llvm.lifetime.end.p0(i64 1, ptr nonnull %7) #13
  call void @llvm.lifetime.end.p0(i64 12, ptr nonnull %6) #13
  ret i1 %19
}